target datalayout = "e-m:e-p270:32:32-p271:32:32-p272:64:64-i64:64-i128:128-f80:128-n8:16:32:64-S128"
target triple = "x86_64-pc-linux-gnu"

%struct.evthread_lock_callbacks = type { i32, i32, ptr, ptr, ptr, ptr }
%struct.bufferevent_private = type { %struct.bufferevent, ptr, i8, i16, i16, i16, i32, i32, %struct.event_callback, i32, i32, ptr, i64, i64, ptr, %union.anon.7, ptr }
%struct.bufferevent = type { ptr, ptr, %struct.event, %struct.event, ptr, ptr, %struct.event_watermark, %struct.event_watermark, ptr, ptr, ptr, ptr, %struct.timeval, %struct.timeval, i16 }
%struct.event = type { %struct.event_callback, %union.anon.0, i32, i16, i16, ptr, %union.anon.2, %struct.timeval }
%union.anon.0 = type { %struct.anon.1 }
%struct.anon.1 = type { ptr, ptr }
%union.anon.2 = type { %struct.anon.3 }
%struct.anon.3 = type { %struct.anon.4, %struct.timeval }
%struct.anon.4 = type { ptr, ptr }
%struct.event_watermark = type { i64, i64 }
%struct.timeval = type { i64, i64 }
%struct.event_callback = type { %struct.anon, i16, i8, i8, %union.anon, ptr }
%struct.anon = type { ptr, ptr }
%union.anon = type { ptr }
%union.anon.7 = type { %struct.sockaddr_in6 }
%struct.sockaddr_in6 = type { i16, i16, i32, %struct.in6_addr, i32 }
%struct.in6_addr = type { %union.anon.8 }
%union.anon.8 = type { [4 x i32] }
%struct.bufferevent_ops = type { ptr, i64, ptr, ptr, ptr, ptr, ptr, ptr, ptr }
%struct.bufferevent_rate_limit = type { %struct.anon.9, ptr, %struct.ev_token_bucket, ptr, %struct.event }
%struct.anon.9 = type { ptr, ptr }
%struct.ev_token_bucket = type { i64, i64, i32 }

@evthread_lock_fns_ = external global %struct.evthread_lock_callbacks, align 8

; Function Attrs: nounwind uwtable
define i32 @bufferevent_decref_and_unlock_(ptr noundef %0) #0 {
  %2 = alloca i32, align 4
  %3 = alloca ptr, align 8
  %4 = alloca ptr, align 8
  %5 = alloca i32, align 4
  %6 = alloca [16 x ptr], align 16
  %7 = alloca ptr, align 8
  %8 = alloca i32, align 4
  %9 = alloca ptr, align 8
  %10 = alloca ptr, align 8
  store ptr %0, ptr %3, align 8
  call void @llvm.lifetime.start.p0(i64 8, ptr %4) #7
  %11 = load ptr, ptr %3, align 8
  %12 = getelementptr inbounds i8, ptr %11, i64 0
  store ptr %12, ptr %4, align 8
  call void @llvm.lifetime.start.p0(i64 4, ptr %5) #7
  store i32 0, ptr %5, align 4
  call void @llvm.lifetime.start.p0(i64 128, ptr %6) #7
  br label %13

13:                                               ; preds = %1
  br label %14

14:                                               ; preds = %13
  br label %15

15:                                               ; preds = %14
  %16 = load ptr, ptr %4, align 8
  %17 = getelementptr inbounds nuw %struct.bufferevent_private, ptr %16, i32 0, i32 10
  %18 = load i32, ptr %17, align 4
  %19 = add nsw i32 %18, -1
  store i32 %19, ptr %17, align 4
  %20 = icmp ne i32 %19, 0
  br i1 %20, label %21, label %41

21:                                               ; preds = %15
  br label %22

22:                                               ; preds = %21
  call void @llvm.lifetime.start.p0(i64 8, ptr %7) #7
  %23 = load ptr, ptr %3, align 8
  %24 = getelementptr inbounds i8, ptr %23, i64 0
  store ptr %24, ptr %7, align 8
  br label %25

25:                                               ; preds = %22
  %26 = load ptr, ptr %7, align 8
  %27 = getelementptr inbounds nuw %struct.bufferevent_private, ptr %26, i32 0, i32 11
  %28 = load ptr, ptr %27, align 8
  %29 = icmp ne ptr %28, null
  br i1 %29, label %30, label %36

30:                                               ; preds = %25
  %31 = load ptr, ptr getelementptr inbounds nuw (%struct.evthread_lock_callbacks, ptr @evthread_lock_fns_, i32 0, i32 5), align 8
  %32 = load ptr, ptr %7, align 8
  %33 = getelementptr inbounds nuw %struct.bufferevent_private, ptr %32, i32 0, i32 11
  %34 = load ptr, ptr %33, align 8
  %35 = call i32 %31(i32 noundef 0, ptr noundef %34)
  br label %36

36:                                               ; preds = %30, %25
  br label %37

37:                                               ; preds = %36
  br label %38

38:                                               ; preds = %37
  call void @llvm.lifetime.end.p0(i64 8, ptr %7) #7
  br label %39

39:                                               ; preds = %38
  br label %40

40:                                               ; preds = %39
  store i32 0, ptr %2, align 4
  store i32 1, ptr %8, align 4
  br label %137

41:                                               ; preds = %15
  %42 = load ptr, ptr %3, align 8
  %43 = getelementptr inbounds nuw %struct.bufferevent, ptr %42, i32 0, i32 1
  %44 = load ptr, ptr %43, align 8
  %45 = getelementptr inbounds nuw %struct.bufferevent_ops, ptr %44, i32 0, i32 4
  %46 = load ptr, ptr %45, align 8
  %47 = icmp ne ptr %46, null
  br i1 %47, label %48, label %55

48:                                               ; preds = %41
  %49 = load ptr, ptr %3, align 8
  %50 = getelementptr inbounds nuw %struct.bufferevent, ptr %49, i32 0, i32 1
  %51 = load ptr, ptr %50, align 8
  %52 = getelementptr inbounds nuw %struct.bufferevent_ops, ptr %51, i32 0, i32 4
  %53 = load ptr, ptr %52, align 8
  %54 = load ptr, ptr %3, align 8
  call void %53(ptr noundef %54)
  br label %55

55:                                               ; preds = %48, %41
  %56 = load ptr, ptr %3, align 8
  %57 = getelementptr inbounds nuw %struct.bufferevent, ptr %56, i32 0, i32 2
  %58 = getelementptr inbounds nuw %struct.event, ptr %57, i32 0, i32 0
  %59 = getelementptr inbounds [16 x ptr], ptr %6, i64 0, i64 0
  store ptr %58, ptr %59, align 16
  %60 = load ptr, ptr %3, align 8
  %61 = getelementptr inbounds nuw %struct.bufferevent, ptr %60, i32 0, i32 3
  %62 = getelementptr inbounds nuw %struct.event, ptr %61, i32 0, i32 0
  %63 = getelementptr inbounds [16 x ptr], ptr %6, i64 0, i64 1
  store ptr %62, ptr %63, align 8
  %64 = load ptr, ptr %4, align 8
  %65 = getelementptr inbounds nuw %struct.bufferevent_private, ptr %64, i32 0, i32 8
  %66 = getelementptr inbounds [16 x ptr], ptr %6, i64 0, i64 2
  store ptr %65, ptr %66, align 16
  store i32 3, ptr %5, align 4
  %67 = load ptr, ptr %4, align 8
  %68 = getelementptr inbounds nuw %struct.bufferevent_private, ptr %67, i32 0, i32 14
  %69 = load ptr, ptr %68, align 8
  %70 = icmp ne ptr %69, null
  br i1 %70, label %71, label %87

71:                                               ; preds = %55
  call void @llvm.lifetime.start.p0(i64 8, ptr %9) #7
  %72 = load ptr, ptr %4, align 8
  %73 = getelementptr inbounds nuw %struct.bufferevent_private, ptr %72, i32 0, i32 14
  %74 = load ptr, ptr %73, align 8
  %75 = getelementptr inbounds nuw %struct.bufferevent_rate_limit, ptr %74, i32 0, i32 4
  store ptr %75, ptr %9, align 8
  %76 = load ptr, ptr %9, align 8
  %77 = call i32 @event_initialized(ptr noundef %76)
  %78 = icmp ne i32 %77, 0
  br i1 %78, label %79, label %86

79:                                               ; preds = %71
  %80 = load ptr, ptr %9, align 8
  %81 = getelementptr inbounds nuw %struct.event, ptr %80, i32 0, i32 0
  %82 = load i32, ptr %5, align 4
  %83 = add nsw i32 %82, 1
  store i32 %83, ptr %5, align 4
  %84 = sext i32 %82 to i64
  %85 = getelementptr inbounds [16 x ptr], ptr %6, i64 0, i64 %84
  store ptr %81, ptr %85, align 8
  br label %86

86:                                               ; preds = %79, %71
  call void @llvm.lifetime.end.p0(i64 8, ptr %9) #7
  br label %87

87:                                               ; preds = %86, %55
  %88 = load ptr, ptr %3, align 8
  %89 = getelementptr inbounds nuw %struct.bufferevent, ptr %88, i32 0, i32 4
  %90 = load ptr, ptr %89, align 8
  %91 = getelementptr inbounds [16 x ptr], ptr %6, i64 0, i64 0
  %92 = load i32, ptr %5, align 4
  %93 = sext i32 %92 to i64
  %94 = getelementptr inbounds ptr, ptr %91, i64 %93
  %95 = load i32, ptr %5, align 4
  %96 = sub nsw i32 16, %95
  %97 = call i32 @evbuffer_get_callbacks_(ptr noundef %90, ptr noundef %94, i32 noundef %96)
  %98 = load i32, ptr %5, align 4
  %99 = add nsw i32 %98, %97
  store i32 %99, ptr %5, align 4
  %100 = load ptr, ptr %3, align 8
  %101 = getelementptr inbounds nuw %struct.bufferevent, ptr %100, i32 0, i32 5
  %102 = load ptr, ptr %101, align 8
  %103 = getelementptr inbounds [16 x ptr], ptr %6, i64 0, i64 0
  %104 = load i32, ptr %5, align 4
  %105 = sext i32 %104 to i64
  %106 = getelementptr inbounds ptr, ptr %103, i64 %105
  %107 = load i32, ptr %5, align 4
  %108 = sub nsw i32 16, %107
  %109 = call i32 @evbuffer_get_callbacks_(ptr noundef %102, ptr noundef %106, i32 noundef %108)
  %110 = load i32, ptr %5, align 4
  %111 = add nsw i32 %110, %109
  store i32 %111, ptr %5, align 4
  %112 = load ptr, ptr %3, align 8
  %113 = getelementptr inbounds nuw %struct.bufferevent, ptr %112, i32 0, i32 0
  %114 = load ptr, ptr %113, align 8
  %115 = load i32, ptr %5, align 4
  %116 = getelementptr inbounds [16 x ptr], ptr %6, i64 0, i64 0
  %117 = call i32 @event_callback_finalize_many_(ptr noundef %114, i32 noundef %115, ptr noundef %116, ptr noundef @bufferevent_finalize_cb_)
  br label %118

118:                                              ; preds = %87
  call void @llvm.lifetime.start.p0(i64 8, ptr %10) #7
  %119 = load ptr, ptr %3, align 8
  %120 = getelementptr inbounds i8, ptr %119, i64 0
  store ptr %120, ptr %10, align 8
  br label %121

121:                                              ; preds = %118
  %122 = load ptr, ptr %10, align 8
  %123 = getelementptr inbounds nuw %struct.bufferevent_private, ptr %122, i32 0, i32 11
  %124 = load ptr, ptr %123, align 8
  %125 = icmp ne ptr %124, null
  br i1 %125, label %126, label %132

126:                                              ; preds = %121
  %127 = load ptr, ptr getelementptr inbounds nuw (%struct.evthread_lock_callbacks, ptr @evthread_lock_fns_, i32 0, i32 5), align 8
  %128 = load ptr, ptr %10, align 8
  %129 = getelementptr inbounds nuw %struct.bufferevent_private, ptr %128, i32 0, i32 11
  %130 = load ptr, ptr %129, align 8
  %131 = call i32 %127(i32 noundef 0, ptr noundef %130)
  br label %132

132:                                              ; preds = %126, %121
  br label %133

133:                                              ; preds = %132
  br label %134

134:                                              ; preds = %133
  call void @llvm.lifetime.end.p0(i64 8, ptr %10) #7
  br label %135

135:                                              ; preds = %134
  br label %136

136:                                              ; preds = %135
  store i32 1, ptr %2, align 4
  store i32 1, ptr %8, align 4
  br label %137

137:                                              ; preds = %136, %40
  call void @llvm.lifetime.end.p0(i64 128, ptr %6) #7
  call void @llvm.lifetime.end.p0(i64 4, ptr %5) #7
  call void @llvm.lifetime.end.p0(i64 8, ptr %4) #7
  %138 = load i32, ptr %2, align 4
  ret i32 %138
}