; Function Attrs: nounwind uwtable
define range(i32 0, 2) i32 @bufferevent_decref_and_unlock_(ptr noundef %0) local_unnamed_addr #0 {
  %2 = alloca [16 x ptr], align 16
  call void @llvm.lifetime.start.p0(i64 128, ptr nonnull %2) #7
  %3 = getelementptr inbounds nuw i8, ptr %0, i64 444
  %4 = load i32, ptr %3, align 4
  %5 = add nsw i32 %4, -1
  store i32 %5, ptr %3, align 4
  %.not = icmp eq i32 %5, 0
  br i1 %.not, label %12, label %6

6:                                                ; preds = %1
  %7 = getelementptr inbounds nuw i8, ptr %0, i64 448
  %8 = load ptr, ptr %7, align 8
  %.not38 = icmp eq ptr %8, null
  br i1 %.not38, label %53, label %9

9:                                                ; preds = %6
  %10 = load ptr, ptr getelementptr inbounds nuw (i8, ptr @evthread_lock_fns_, i64 32), align 8
  %11 = tail call i32 %10(i32 noundef 0, ptr noundef nonnull %8) #7
  br label %53

12:                                               ; preds = %1
  %13 = getelementptr inbounds nuw i8, ptr %0, i64 8
  %14 = load ptr, ptr %13, align 8
  %15 = getelementptr inbounds nuw i8, ptr %14, i64 32
  %16 = load ptr, ptr %15, align 8
  %.not34 = icmp eq ptr %16, null
  br i1 %.not34, label %18, label %17

17:                                               ; preds = %12
  tail call void %16(ptr noundef nonnull %0) #7
  br label %18

18:                                               ; preds = %17, %12
  %19 = getelementptr inbounds nuw i8, ptr %0, i64 16
  store ptr %19, ptr %2, align 16
  %20 = getelementptr inbounds nuw i8, ptr %0, i64 136
  %21 = getelementptr inbounds nuw i8, ptr %2, i64 8
  store ptr %20, ptr %21, align 8
  %22 = getelementptr inbounds nuw i8, ptr %0, i64 400
  %23 = getelementptr inbounds nuw i8, ptr %2, i64 16
  store ptr %22, ptr %23, align 16
  %24 = getelementptr inbounds nuw i8, ptr %0, i64 472
  %25 = load ptr, ptr %24, align 8
  %.not35 = icmp eq ptr %25, null
  br i1 %.not35, label %31, label %26

26:                                               ; preds = %18
  %27 = getelementptr inbounds nuw i8, ptr %25, i64 56
  %28 = tail call i32 @event_initialized(ptr noundef nonnull %27) #7
  %.not36 = icmp eq i32 %28, 0
  br i1 %.not36, label %31, label %29

29:                                               ; preds = %26
  %30 = getelementptr inbounds nuw i8, ptr %2, i64 24
  store ptr %27, ptr %30, align 8
  br label %31

31:                                               ; preds = %26, %29, %18
  %.029 = phi i32 [ 3, %18 ], [ 4, %29 ], [ 3, %26 ]
  %32 = getelementptr inbounds nuw i8, ptr %0, i64 256
  %33 = load ptr, ptr %32, align 8
  %34 = zext nneg i32 %.029 to i64
  %35 = getelementptr inbounds nuw ptr, ptr %2, i64 %34
  %36 = sub nuw nsw i32 16, %.029
  %37 = call i32 @evbuffer_get_callbacks_(ptr noundef %33, ptr noundef nonnull %35, i32 noundef %36) #7
  %38 = add nsw i32 %37, %.029
  %39 = getelementptr inbounds nuw i8, ptr %0, i64 264
  %40 = load ptr, ptr %39, align 8
  %41 = sext i32 %38 to i64
  %42 = getelementptr inbounds ptr, ptr %2, i64 %41
  %43 = sub nsw i32 16, %38
  %44 = call i32 @evbuffer_get_callbacks_(ptr noundef %40, ptr noundef nonnull %42, i32 noundef %43) #7
  %45 = add nsw i32 %44, %38
  %46 = load ptr, ptr %0, align 8
  %47 = call i32 @event_callback_finalize_many_(ptr noundef %46, i32 noundef %45, ptr noundef nonnull %2, ptr noundef nonnull @bufferevent_finalize_cb_) #7
  %48 = getelementptr inbounds nuw i8, ptr %0, i64 448
  %49 = load ptr, ptr %48, align 8
  %.not37 = icmp eq ptr %49, null
  br i1 %.not37, label %53, label %50

50:                                               ; preds = %31
  %51 = load ptr, ptr getelementptr inbounds nuw (i8, ptr @evthread_lock_fns_, i64 32), align 8
  %52 = call i32 %51(i32 noundef 0, ptr noundef nonnull %49) #7
  br label %53

53:                                               ; preds = %31, %50, %6, %9
  %.0 = phi i32 [ 0, %9 ], [ 0, %6 ], [ 1, %50 ], [ 1, %31 ]
  call void @llvm.lifetime.end.p0(i64 128, ptr nonnull %2) #7
  ret i32 %.0
}